target datalayout = "e-m:e-p270:32:32-p271:32:32-p272:64:64-i64:64-i128:128-f80:128-n8:16:32:64-S128"
target triple = "x86_64-pc-linux-gnu"

@opt_verbosity = internal global i32 6, align 4
@.str.351 = private unnamed_addr constant [22 x i8] c"../openssl/apps/cmp.c\00", align 1
@bio_out = external global ptr, align 8
@opt_item = internal global [41 x i8] zeroinitializer, align 16
@.str.363 = private unnamed_addr constant [8 x i8] c"warning\00", align 1
@.str.390 = private unnamed_addr constant [86 x i8] c"%s:%s:%d:CMP %s: using only first %d characters of section name starting with \22%.*s\22\0A\00", align 1
@__func__.prev_item = private unnamed_addr constant [10 x i8] c"prev_item\00", align 1

; Function Attrs: nounwind uwtable
define internal ptr @prev_item(ptr noundef %0, ptr noundef %1) #0 {
  %3 = alloca ptr, align 8
  %4 = alloca ptr, align 8
  %5 = alloca ptr, align 8
  %6 = alloca ptr, align 8
  %7 = alloca i64, align 8
  %8 = alloca i32, align 4
  store ptr %0, ptr %4, align 8, !tbaa !11
  store ptr %1, ptr %5, align 8, !tbaa !11
  call void @llvm.lifetime.start.p0(i64 8, ptr %6) #11
  call void @llvm.lifetime.start.p0(i64 8, ptr %7) #11
  %9 = load ptr, ptr %5, align 8, !tbaa !11
  %10 = load ptr, ptr %4, align 8, !tbaa !11
  %11 = icmp eq ptr %9, %10
  br i1 %11, label %12, label %13

12:                                               ; preds = %2
  store ptr null, ptr %3, align 8
  store i32 1, ptr %8, align 4
  br label %97

13:                                               ; preds = %2
  %14 = load ptr, ptr %5, align 8, !tbaa !11
  store ptr %14, ptr %6, align 8, !tbaa !11
  br label %15

15:                                               ; preds = %43, %13
  %16 = load ptr, ptr %6, align 8, !tbaa !11
  %17 = load ptr, ptr %4, align 8, !tbaa !11
  %18 = icmp ugt ptr %16, %17
  br i1 %18, label %19, label %44

19:                                               ; preds = %15
  %20 = load ptr, ptr %6, align 8, !tbaa !11
  %21 = getelementptr inbounds i8, ptr %20, i32 -1
  store ptr %21, ptr %6, align 8, !tbaa !11
  %22 = load ptr, ptr %6, align 8, !tbaa !11
  %23 = getelementptr inbounds i8, ptr %22, i64 0
  %24 = load i8, ptr %23, align 1, !tbaa !23
  %25 = sext i8 %24 to i32
  %26 = icmp eq i32 %25, 44
  br i1 %26, label %40, label %27

27:                                               ; preds = %19
  %28 = call ptr @__ctype_b_loc() #13
  %29 = load ptr, ptr %28, align 8, !tbaa !47
  %30 = load ptr, ptr %6, align 8, !tbaa !11
  %31 = getelementptr inbounds i8, ptr %30, i64 0
  %32 = load i8, ptr %31, align 1, !tbaa !23
  %33 = zext i8 %32 to i32
  %34 = sext i32 %33 to i64
  %35 = getelementptr inbounds i16, ptr %29, i64 %34
  %36 = load i16, ptr %35, align 2, !tbaa !49
  %37 = zext i16 %36 to i32
  %38 = and i32 %37, 8192
  %39 = icmp ne i32 %38, 0
  br i1 %39, label %40, label %43

40:                                               ; preds = %27, %19
  %41 = load ptr, ptr %6, align 8, !tbaa !11
  %42 = getelementptr inbounds nuw i8, ptr %41, i32 1
  store ptr %42, ptr %6, align 8, !tbaa !11
  br label %44

43:                                               ; preds = %27
  br label %15, !llvm.loop !51

44:                                               ; preds = %40, %15
  %45 = load ptr, ptr %5, align 8, !tbaa !11
  %46 = load ptr, ptr %6, align 8, !tbaa !11
  %47 = ptrtoint ptr %45 to i64
  %48 = ptrtoint ptr %46 to i64
  %49 = sub i64 %47, %48
  store i64 %49, ptr %7, align 8, !tbaa !52
  %50 = load i64, ptr %7, align 8, !tbaa !52
  %51 = icmp ugt i64 %50, 40
  br i1 %51, label %52, label %61

52:                                               ; preds = %44
  %53 = load i32, ptr @opt_verbosity, align 4, !tbaa !4
  %54 = icmp sgt i32 4, %53
  br i1 %54, label %55, label %56

55:                                               ; preds = %52
  br label %60

56:                                               ; preds = %52
  %57 = load ptr, ptr @bio_out, align 8, !tbaa !21
  %58 = load ptr, ptr %6, align 8, !tbaa !11
  %59 = call i32 (ptr, ptr, ...) @BIO_printf(ptr noundef %57, ptr noundef @.str.390, ptr noundef @__func__.prev_item, ptr noundef @.str.351, i32 noundef 2597, ptr noundef @.str.363, i32 noundef 40, i32 noundef 40, ptr noundef %58)
  br label %60

60:                                               ; preds = %56, %55
  store i64 40, ptr %7, align 8, !tbaa !52
  br label %61

61:                                               ; preds = %60, %44
  %62 = load ptr, ptr %6, align 8, !tbaa !11
  %63 = load i64, ptr %7, align 8, !tbaa !52
  call void @llvm.memcpy.p0.p0.i64(ptr align 16 @opt_item, ptr align 1 %62, i64 %63, i1 false)
  %64 = load i64, ptr %7, align 8, !tbaa !52
  %65 = getelementptr inbounds nuw [41 x i8], ptr @opt_item, i64 0, i64 %64
  store i8 0, ptr %65, align 1, !tbaa !23
  br label %66

66:                                               ; preds = %94, %61
  %67 = load ptr, ptr %6, align 8, !tbaa !11
  %68 = load ptr, ptr %4, align 8, !tbaa !11
  %69 = icmp ugt ptr %67, %68
  br i1 %69, label %70, label %95

70:                                               ; preds = %66
  %71 = load ptr, ptr %6, align 8, !tbaa !11
  %72 = getelementptr inbounds i8, ptr %71, i32 -1
  store ptr %72, ptr %6, align 8, !tbaa !11
  %73 = load ptr, ptr %6, align 8, !tbaa !11
  %74 = getelementptr inbounds i8, ptr %73, i64 0
  %75 = load i8, ptr %74, align 1, !tbaa !23
  %76 = sext i8 %75 to i32
  %77 = icmp ne i32 %76, 44
  br i1 %77, label %78, label %94

78:                                               ; preds = %70
  %79 = call ptr @__ctype_b_loc() #13
  %80 = load ptr, ptr %79, align 8, !tbaa !47
  %81 = load ptr, ptr %6, align 8, !tbaa !11
  %82 = getelementptr inbounds i8, ptr %81, i64 0
  %83 = load i8, ptr %82, align 1, !tbaa !23
  %84 = zext i8 %83 to i32
  %85 = sext i32 %84 to i64
  %86 = getelementptr inbounds i16, ptr %80, i64 %85
  %87 = load i16, ptr %86, align 2, !tbaa !49
  %88 = zext i16 %87 to i32
  %89 = and i32 %88, 8192
  %90 = icmp ne i32 %89, 0
  br i1 %90, label %94, label %91

91:                                               ; preds = %78
  %92 = load ptr, ptr %6, align 8, !tbaa !11
  %93 = getelementptr inbounds nuw i8, ptr %92, i32 1
  store ptr %93, ptr %6, align 8, !tbaa !11
  br label %95

94:                                               ; preds = %78, %70
  br label %66, !llvm.loop !53

95:                                               ; preds = %91, %66
  %96 = load ptr, ptr %6, align 8, !tbaa !11
  store ptr %96, ptr %3, align 8
  store i32 1, ptr %8, align 4
  br label %97

97:                                               ; preds = %95, %12
  call void @llvm.lifetime.end.p0(i64 8, ptr %7) #11
  call void @llvm.lifetime.end.p0(i64 8, ptr %6) #11
  %98 = load ptr, ptr %3, align 8
  ret ptr %98
}