; Function Attrs: nounwind uwtable
define internal fastcc noundef ptr @prev_item(ptr noundef readnone captures(address) %0, ptr noundef %1) unnamed_addr #0 {
  %3 = ptrtoint ptr %1 to i64
  %4 = ptrtoint ptr %0 to i64
  %5 = icmp eq ptr %1, %0
  br i1 %5, label %.loopexit, label %.preheader

.preheader:                                       ; preds = %2, %11
  %.023 = phi ptr [ %8, %11 ], [ %1, %2 ]
  %6 = icmp ugt ptr %.023, %0
  br i1 %6, label %7, label %18

7:                                                ; preds = %.preheader
  %8 = getelementptr inbounds i8, ptr %.023, i64 -1
  %9 = load i8, ptr %8, align 1, !tbaa !9
  %10 = icmp eq i8 %9, 44
  br i1 %10, label %18, label %11

11:                                               ; preds = %7
  %12 = tail call ptr @__ctype_b_loc() #15
  %13 = load ptr, ptr %12, align 8, !tbaa !26
  %14 = zext i8 %9 to i64
  %15 = getelementptr inbounds nuw i16, ptr %13, i64 %14
  %16 = load i16, ptr %15, align 2, !tbaa !28
  %17 = and i16 %16, 8192
  %.not = icmp eq i16 %17, 0
  br i1 %.not, label %.preheader, label %18, !llvm.loop !30

18:                                               ; preds = %7, %11, %.preheader
  %19 = ptrtoint ptr %.023 to i64
  %20 = sub i64 %3, %19
  %21 = icmp ugt i64 %20, 40
  br i1 %21, label %22, label %28

22:                                               ; preds = %18
  %23 = load i32, ptr @opt_verbosity, align 4, !tbaa !10
  %24 = icmp slt i32 %23, 4
  br i1 %24, label %28, label %25

25:                                               ; preds = %22
  %26 = load ptr, ptr @bio_out, align 8, !tbaa !12
  %27 = tail call i32 (ptr, ptr, ...) @BIO_printf(ptr noundef %26, ptr noundef nonnull @.str.390, ptr noundef nonnull @__func__.prev_item, ptr noundef nonnull @.str.351, i32 noundef 2597, ptr noundef nonnull @.str.363, i32 noundef 40, i32 noundef 40, ptr noundef %.023) #12
  br label %28

28:                                               ; preds = %25, %22, %18
  %.0 = phi i64 [ %20, %18 ], [ 40, %22 ], [ 40, %25 ]
  tail call void @llvm.memcpy.p0.p0.i64(ptr nonnull align 16 @opt_item, ptr align 1 %.023, i64 %.0, i1 false)
  %29 = getelementptr inbounds nuw [41 x i8], ptr @opt_item, i64 0, i64 %.0
  store i8 0, ptr %29, align 1, !tbaa !9
  br i1 %6, label %.lr.ph.preheader, label %.loopexit

.lr.ph.preheader:                                 ; preds = %28
  %30 = sub i64 %4, %3
  %scevgep = getelementptr i8, ptr %1, i64 %30
  br label %.lr.ph

.lr.ph:                                           ; preds = %.lr.ph.preheader, %40
  %.230 = phi ptr [ %31, %40 ], [ %.023, %.lr.ph.preheader ]
  %31 = getelementptr inbounds i8, ptr %.230, i64 -1
  %32 = load i8, ptr %31, align 1, !tbaa !9
  %.not28 = icmp eq i8 %32, 44
  br i1 %.not28, label %40, label %33

33:                                               ; preds = %.lr.ph
  %34 = tail call ptr @__ctype_b_loc() #15
  %35 = load ptr, ptr %34, align 8, !tbaa !26
  %36 = zext i8 %32 to i64
  %37 = getelementptr inbounds nuw i16, ptr %35, i64 %36
  %38 = load i16, ptr %37, align 2, !tbaa !28
  %39 = and i16 %38, 8192
  %.not29 = icmp eq i16 %39, 0
  br i1 %.not29, label %.loopexit, label %40

40:                                               ; preds = %33, %.lr.ph
  %41 = icmp ugt ptr %31, %0
  br i1 %41, label %.lr.ph, label %.loopexit, !llvm.loop !31

.loopexit:                                        ; preds = %33, %40, %28, %2
  %.024 = phi ptr [ null, %2 ], [ %.023, %28 ], [ %.230, %33 ], [ %scevgep, %40 ]
  ret ptr %.024
}